target datalayout = "e-m:e-p270:32:32-p271:32:32-p272:64:64-i64:64-i128:128-f80:128-n8:16:32:64-S128"
target triple = "x86_64-pc-linux-gnu"

%"class.icu_77::UnicodeString" = type { %"class.icu_77::Replaceable", %"union.icu_77::UnicodeString::StackBufferOrFields" }
%"class.icu_77::Replaceable" = type { %"class.icu_77::UObject" }
%"class.icu_77::UObject" = type { ptr }
%"union.icu_77::UnicodeString::StackBufferOrFields" = type { %struct.anon.4, [32 x i8] }
%struct.anon.4 = type { i16, i32, i32, ptr }

; Function Attrs: inlinehint mustprogress nounwind uwtable
define linkonce_odr noundef signext i8 @_ZNK6icu_7713UnicodeString7isEmptyEv(ptr noundef nonnull align 8 dereferenceable(64) %0) #2 comdat align 2 {
  %2 = alloca ptr, align 8
  store ptr %0, ptr %2, align 8, !tbaa !72
  %3 = load ptr, ptr %2, align 8
  %4 = getelementptr inbounds nuw %"class.icu_77::UnicodeString", ptr %3, i32 0, i32 1
  %5 = getelementptr inbounds nuw %struct.anon.4, ptr %4, i32 0, i32 0
  %6 = load i16, ptr %5, align 8, !tbaa !65
  %7 = sext i16 %6 to i32
  %8 = ashr i32 %7, 5
  %9 = icmp eq i32 %8, 0
  %10 = zext i1 %9 to i8
  ret i8 %10
}

; Function Attrs: mustprogress uwtable
define internal noundef zeroext i1 @_ZN6icu_7712_GLOBAL__N_121shouldChangeToVavDashERKNS_13UnicodeStringE(ptr noundef nonnull align 8 dereferenceable(64) %0) #1 {
  %2 = alloca i1, align 1
  %3 = alloca ptr, align 8
  %4 = alloca i32, align 4
  store ptr %0, ptr %3, align 8, !tbaa !72
  %5 = load ptr, ptr %3, align 8, !tbaa !72
  %6 = call noundef signext i8 @_ZNK6icu_7713UnicodeString7isEmptyEv(ptr noundef nonnull align 8 dereferenceable(64) %5)
  %7 = icmp ne i8 %6, 0
  br i1 %7, label %8, label %9

8:                                                ; preds = %1
  store i1 false, ptr %2, align 1
  br label %14

9:                                                ; preds = %1
  call void @llvm.lifetime.start.p0(i64 4, ptr %4) #12
  store i32 0, ptr %4, align 4, !tbaa !15
  %10 = load ptr, ptr %3, align 8, !tbaa !72
  %11 = call noundef i32 @_ZNK6icu_7713UnicodeString8char32AtEi(ptr noundef nonnull align 8 dereferenceable(64) %10, i32 noundef 0)
  %12 = call i32 @uscript_getScript_77(i32 noundef %11, ptr noundef %4)
  %13 = icmp ne i32 %12, 19
  store i1 %13, ptr %2, align 1
  call void @llvm.lifetime.end.p0(i64 4, ptr %4) #12
  br label %14

14:                                               ; preds = %9, %8
  %15 = load i1, ptr %2, align 1
  ret i1 %15
}