; Function Attrs: mustprogress uwtable
define internal noundef zeroext i1 @_ZN6icu_7712_GLOBAL__N_121shouldChangeToVavDashERKNS_13UnicodeStringE(ptr noundef nonnull align 8 dereferenceable(64) %0) #1 {
  %2 = alloca i32, align 4
  %3 = getelementptr inbounds nuw i8, ptr %0, i64 8
  %4 = load i16, ptr %3, align 8, !tbaa !25
  %5 = icmp ugt i16 %4, 31
  br i1 %5, label %6, label %10

6:                                                ; preds = %1
  call void @llvm.lifetime.start.p0(i64 4, ptr nonnull %2) #19
  store i32 0, ptr %2, align 4, !tbaa !13
  %7 = tail call noundef i32 @_ZNK6icu_7713UnicodeString8char32AtEi(ptr noundef nonnull align 8 dereferenceable(64) %0, i32 noundef 0)
  %8 = call i32 @uscript_getScript_77(i32 noundef %7, ptr noundef nonnull %2)
  %9 = icmp ne i32 %8, 19
  call void @llvm.lifetime.end.p0(i64 4, ptr nonnull %2) #19
  br label %10

10:                                               ; preds = %1, %6
  %.0 = phi i1 [ %9, %6 ], [ false, %1 ]
  ret i1 %.0
}